; Function Attrs: nounwind uwtable
define dso_local range(i32 -1, 1) i32 @PyRun_InteractiveLoop(ptr noundef %0, ptr noundef %1) local_unnamed_addr #0 {
  %3 = tail call ptr @PyUnicode_DecodeFSDefault(ptr noundef %1) #8
  %4 = icmp eq ptr %3, null
  br i1 %4, label %5, label %8

5:                                                ; preds = %2
  %6 = tail call align 8 ptr @llvm.threadlocal.address.p0(ptr align 8 @_Py_tss_tstate)
  %7 = load ptr, ptr %6, align 8, !tbaa !4
  tail call fastcc void @_PyErr_PrintEx(ptr noundef %7, i32 noundef 1)
  br label %PyRun_InteractiveLoopFlags.exit

8:                                                ; preds = %2
  %9 = tail call i32 @_PyRun_InteractiveLoopObject(ptr noundef %0, ptr noundef nonnull %3, ptr noundef null)
  %10 = load i32, ptr %3, align 8, !tbaa !9
  %.not.i.i = icmp sgt i32 %10, -1
  br i1 %.not.i.i, label %11, label %PyRun_InteractiveLoopFlags.exit

11:                                               ; preds = %8
  %12 = add nsw i32 %10, -1
  store i32 %12, ptr %3, align 8, !tbaa !9
  %13 = icmp eq i32 %12, 0
  br i1 %13, label %14, label %PyRun_InteractiveLoopFlags.exit

14:                                               ; preds = %11
  tail call void @_Py_Dealloc(ptr noundef nonnull %3) #8
  br label %PyRun_InteractiveLoopFlags.exit

PyRun_InteractiveLoopFlags.exit:                  ; preds = %5, %8, %11, %14
  %.0.i = phi i32 [ -1, %5 ], [ %9, %8 ], [ %9, %11 ], [ %9, %14 ]
  ret i32 %.0.i
}